; Function Attrs: mustprogress nofree norecurse nosync nounwind memory(argmem: readwrite) uwtable
define hidden noundef nonnull align 4 dereferenceable(4) ptr @_ZNK24fixed_bit_vector_manager6set_orER16fixed_bit_vectorRKS0_(ptr noundef nonnull readonly align 8 captures(none) dereferenceable(540) %0, ptr noundef nonnull returned align 4 captures(ret: address, provenance) dereferenceable(4) %1, ptr noundef nonnull readonly align 4 captures(none) dereferenceable(4) %2) local_unnamed_addr #3 align 2 {
  %4 = getelementptr inbounds nuw i8, ptr %0, i64 528
  %5 = load i32, ptr %4, align 8, !tbaa !16
  %.not = icmp eq i32 %5, 0
  br i1 %.not, label %._crit_edge, label %.lr.ph

._crit_edge:                                      ; preds = %.lr.ph, %3
  ret ptr %1

.lr.ph:                                           ; preds = %3, %.lr.ph
  %indvars.iv = phi i64 [ %indvars.iv.next, %.lr.ph ], [ 0, %3 ]
  %6 = getelementptr inbounds nuw [1 x i32], ptr %2, i64 0, i64 %indvars.iv
  %7 = load i32, ptr %6, align 4, !tbaa !3
  %8 = getelementptr inbounds nuw [1 x i32], ptr %1, i64 0, i64 %indvars.iv
  %9 = load i32, ptr %8, align 4, !tbaa !3
  %10 = or i32 %9, %7
  store i32 %10, ptr %8, align 4, !tbaa !3
  %indvars.iv.next = add nuw nsw i64 %indvars.iv, 1
  %11 = load i32, ptr %4, align 8, !tbaa !16
  %12 = zext i32 %11 to i64
  %13 = icmp samesign ult i64 %indvars.iv.next, %12
  br i1 %13, label %.lr.ph, label %._crit_edge, !llvm.loop !20
}